; Function Attrs: nounwind uwtable
define internal fastcc i32 @_bt_binsrch_posting(ptr noundef readonly captures(none) %0, ptr noundef %1, i16 noundef zeroext %2) unnamed_addr #0 {
  %4 = getelementptr inbounds nuw i8, ptr %1, i64 24
  %5 = zext i16 %2 to i64
  %6 = add nsw i64 %5, -1
  %7 = getelementptr inbounds [0 x %struct.ItemIdData], ptr %4, i64 0, i64 %6
  %.val = load i32, ptr %7, align 4
  %8 = and i32 %.val, 32767
  %9 = zext nneg i32 %8 to i64
  %10 = getelementptr inbounds nuw i8, ptr %1, i64 %9
  %11 = getelementptr inbounds nuw i8, ptr %10, i64 6
  %12 = load i16, ptr %11, align 2
  %13 = and i16 %12, 8192
  %14 = icmp eq i16 %13, 0
  br i1 %14, label %BTreeTupleIsPosting.exit.thread, label %BTreeTupleIsPosting.exit

BTreeTupleIsPosting.exit:                         ; preds = %3
  %15 = getelementptr i8, ptr %10, i64 4
  %.val.i = load i16, ptr %15, align 2
  %16 = and i16 %.val.i, 8192
  %.not = icmp eq i16 %16, 0
  br i1 %.not, label %BTreeTupleIsPosting.exit.thread, label %17

17:                                               ; preds = %BTreeTupleIsPosting.exit
  %18 = and i32 %.val, 98304
  %19 = icmp eq i32 %18, 98304
  br i1 %19, label %BTreeTupleIsPosting.exit.thread, label %20

20:                                               ; preds = %17
  %21 = and i16 %.val.i, 4095
  %.not31 = icmp eq i16 %21, 0
  br i1 %.not31, label %BTreeTupleIsPosting.exit.thread, label %.lr.ph

.lr.ph:                                           ; preds = %20
  %22 = zext nneg i16 %21 to i32
  %23 = getelementptr inbounds nuw i8, ptr %0, i64 8
  %24 = getelementptr i8, ptr %10, i64 2
  br label %25

25:                                               ; preds = %.lr.ph, %43
  %.02128 = phi i32 [ 0, %.lr.ph ], [ %.1, %43 ]
  %.02227 = phi i32 [ %22, %.lr.ph ], [ %.123, %43 ]
  %26 = sub i32 %.02227, %.02128
  %27 = sdiv i32 %26, 2
  %28 = add i32 %27, %.02128
  %29 = load ptr, ptr %23, align 8
  %.val.i.i = load i16, ptr %10, align 2
  %.val2.i.i = load i16, ptr %24, align 2
  %30 = zext i16 %.val.i.i to i64
  %31 = shl nuw nsw i64 %30, 16
  %32 = zext i16 %.val2.i.i to i64
  %33 = or disjoint i64 %31, %32
  %34 = getelementptr inbounds nuw i8, ptr %10, i64 %33
  %35 = sext i32 %28 to i64
  %36 = getelementptr inbounds %struct.ItemPointerData, ptr %34, i64 %35
  %37 = tail call i32 @ItemPointerCompare(ptr noundef %29, ptr noundef nonnull %36) #7
  %38 = icmp sgt i32 %37, 0
  br i1 %38, label %39, label %41

39:                                               ; preds = %25
  %40 = add i32 %28, 1
  br label %43

41:                                               ; preds = %25
  %42 = icmp slt i32 %37, 0
  br i1 %42, label %43, label %BTreeTupleIsPosting.exit.thread

43:                                               ; preds = %41, %39
  %.123 = phi i32 [ %.02227, %39 ], [ %28, %41 ]
  %.1 = phi i32 [ %40, %39 ], [ %.02128, %41 ]
  %44 = icmp sgt i32 %.123, %.1
  br i1 %44, label %25, label %BTreeTupleIsPosting.exit.thread, !llvm.loop !12

BTreeTupleIsPosting.exit.thread:                  ; preds = %41, %43, %20, %3, %17, %BTreeTupleIsPosting.exit
  %.0 = phi i32 [ 0, %BTreeTupleIsPosting.exit ], [ -1, %17 ], [ 0, %3 ], [ 0, %20 ], [ %28, %41 ], [ %.1, %43 ]
  ret i32 %.0
}